ASxxxx Assembler V02.00 + NoICE + SDCC mods  (Zilog Z80 / Hitachi HD64180), page 1.
Hexadecimal [16-Bits]



                              1 ;;
                              2 ;;sys a
                              3 ;;
ASxxxx Assembler V02.00 + NoICE + SDCC mods  (Zilog Z80 / Hitachi HD64180), page 2.
Hexadecimal [16-Bits]



                              4 .include "man/entity_manager.h.s"
                              1 ;;
                              2 ;;entity Manager
                              3 ;;
                              4 
                              5 
                              6 
                              7 .globl create_entities
                              8 .globl entityman_getEntityVector_IX
                              9 .globl entityman_num_entities
                             10 .globl _num_entities
                             11 .globl init_entities
                             12 
                             13 
                             14 ;; Entity definition macro
                             15 
                             16 
                             17 .macro Entity _name,_x,_y,_xl,_yl,_xll,_yll,_vx,_vy,_sh,_iast,_dir,_dead,_ancho,_alto
                             18 _name::
                             19 .db _x      ;;posicion x del tanque
                             20 .db _y	;;posicion y del tanque
                             21 .db _xl	;;posicion de la x anterior
                             22 .db _yl	;;posicion de la y anterior
                             23 .db _xll	;;posicion de la x 2 veces anterior
                             24 .db _yll	;;posicion de la x 2 veces anterior
                             25 .db _vx	;;velocidad en x
                             26 .db _vy	;;velocidad en y
                             27 .db _sh	;;shot 0 no 1 si
                             28 .db _iast;;type 0 jugador por teclas ,1 enemigo ia
                             29 .db _dir    ;;movimiento  
                             30 .db _sh     ;; si no dispara es 0 si dispara es 1
                             31 .db _dead;;canon 0 vivo 1 muere
                             32 .db 0x00, 0x00    ;;iax ia y
                             33 .db _iast  ;;Estado anterior de la ia 
                             34 .dw 0x0000	;; puntero de la patrulla que voy a realizar
                             35 .dw 0x0000 ;;puntero al estado que tengo que saltar
                             36 .db _ancho
                             37 .db _alto
                             38 .db 25  ;; contador cambio direcion del sprite
                             39 
                             40 
                             41 
                             42 
                             43 
                             44 
                             45 .endm 
                             46 
                             47 
                             48 .macro NextEntity
                             49 ld de, #siceof_e
                             50 	add ix, de
                             51 .endm
                             52 	
                             53 
                     0000    54 e_x  	= 0
ASxxxx Assembler V02.00 + NoICE + SDCC mods  (Zilog Z80 / Hitachi HD64180), page 3.
Hexadecimal [16-Bits]



                     0001    55 e_y  	= 1
                     0002    56 e_xl  = 2
                     0003    57 e_yl  = 3
                     0004    58 e_xll = 4
                     0005    59 e_yll = 5
                     0006    60 e_vx	= 6
                     0007    61 e_vy	= 7
                     0008    62 e_sh 	= 8
                     0009    63 e_ia_st = 9
                     000A    64 e_dir = 10
                     000B    65 e_sh = 11
                     000C    66 e_dead=12
                     000D    67 e_ia_x= 13
                     000E    68 e_ia_y= 14
                     000F    69 e_ia_st_prev=15
                     0010    70 e_ia_puntero_patrol_h=16
                     0011    71 e_ia_puntero_patrol_l=17
                     0012    72 e_ia_puntero_st_h=18
                     0013    73 e_ia_puntero_st_l=19
                     0014    74 e_ancho 	= 20
                     0015    75 e_alto	= 21
                     0016    76 e_clock     = 22
                     0017    77 siceof_e 	= 23
                             78 
                             79 ;; Movimiento de la entidad
                     0003    80 e_dir_right = 3
                     0002    81 e_dir_top   = 2
                     0001    82 e_dir_left  = 1
                     0004    83 e_dir_bott  = 4
                             84 
                             85 ;; Dibujo que representa el movimiento de la entidad
                             86 
                             87  ;;      2
                             88  ;;     1e3
                             89  ;;      4
                             90 
                             91 
                             92 ;;Estados ia
                     0000    93 e_ia_st_noIA 	= 0
                     0001    94 e_ia_st_stand_by	= 1
                     0002    95 e_ia_st_move_to   = 2
                     0003    96 e_ia_st_patron	= 3
                             97 
ASxxxx Assembler V02.00 + NoICE + SDCC mods  (Zilog Z80 / Hitachi HD64180), page 4.
Hexadecimal [16-Bits]



                              5 .include "cpct_functions.h.s"
                              1 ;;
                              2 ;;CPCTELERA FUNCTION
                              3 ;;
                              4 
                              5 
                              6 .globl cpct_getScreenPtr_asm
                              7 .globl cpct_drawSolidBox_asm
                              8 .globl cpct_setDrawCharM0_asm 
                              9 .globl cpct_drawStringM0_asm
                             10 .globl cpct_disableFirmware_asm
                             11 .globl cpct_scanKeyboard_asm
                             12 .globl cpct_isKeyPressed_asm
                             13 .globl cpct_setVideoMode_asm
                             14 .globl cpct_drawSprite_asm
                             15 .globl cpct_setPalette_asm
                             16 .globl cpct_setVideoMemoryPage_asm
                             17 .globl cpct_waitVSYNC_asm
                             18 .globl cpct_zx7b_decrunch_s_asm
                             19 .globl cpct_etm_setDrawTilemap4x8_ag_asm
                             20 .globl cpct_etm_drawTilemap4x8_ag_asm	
                             21 .globl cpct_waitHalts_asm
                             22 
                             23 .globl cpct_akp_musicPlay_asm
                             24 .globl cpct_akp_musicInit_asm
                             25 .globl cpct_setInterruptHandler_asm
                             26 .globl cpct_getRandom_mxor_u8_asm
                             27 
                             28 
                             29 
                             30 
                             31 
                             32 
                             33 
                             34 .globl cpct_akp_SFXPlay_asm
                             35 .globl cpct_akp_SFXInit_asm
                             36 .globl cpct_akp_SFXStopAll_asm
                             37 .globl cpct_akp_stop_asm
                             38 
                             39 
                             40 
                             41 
                             42 
ASxxxx Assembler V02.00 + NoICE + SDCC mods  (Zilog Z80 / Hitachi HD64180), page 5.
Hexadecimal [16-Bits]



                              6 .include "man/manager_buffer.h.s"
                              1 ;;
                              2 ;;Manager_buffer h
                              3 ;;
                              4 
                              5 .globl map_switchBuffers
                              6 .globl map_getVideoPrt
                              7 .globl map_firstBuffer
ASxxxx Assembler V02.00 + NoICE + SDCC mods  (Zilog Z80 / Hitachi HD64180), page 6.
Hexadecimal [16-Bits]



                              7 .include "man/shot_manager.h.s"
                              1 ;;
                              2 ;;shot manager h
                              3 ;;
                              4 
                              5 ;; MACROS
                              6 
                              7 .macro DefineBalesArray _nameb,_N
                              8 _nameb::
                              9 	.rept _N
                             10 DefineBalesAnnonimous -1,00,00,00,00,00,00,00,00,00,00,0x00
                             11 	.endm 
                             12 .endm
                             13 
                             14 .macro DefineBalesAnnonimous _bx,_by,_bxl,_byl,_bxll,_byll,_bvx,_bvy,_bsta,_bwidth,_bheight,_bcolor
                             15 .db _bx           ;; posicion de la bala x          
                             16 .db _by		;; posicion de la bala y
                             17 .db _bxl		;; posicion anterior x
                             18 .db _byl		;; posicion anterior y
                             19 .db _bxll		;; posicion 2 veces anterior x
                             20 .db _byll		;; posicion 2 veces anterior y
                             21 .db _bvx 		;; velocidad bala en x
                             22 .db _bvy		;; belocidad bala en y
                             23 .db _bsta		;; estado de la bala   ¡¡¡¡¡YA NO SIRVEE¡¡¡¡¡¡
                             24 .db _bwidth       ;; anchura de la bala
                             25 .db _bheight      ;; altura de la bala
                             26 .db _bcolor       ;; color de la bala
                             27 .db 0x00 ,0x00    ;; posicion de memoria del canon
                             28  
                             29 .endm
                             30 
                             31 ;; CONSTANTES QUE REFERENCIAN LOS ATRIBUTOS DE LAS BALAS (USADOS POR LOS REGISTROS IX E IY, RESPECTIVAMENTE)
                             32 
                     0000    33 b_x       = 0
                     0001    34 b_y       = 1
                     0002    35 b_xl      = 2
                     0003    36 b_yl      = 3
                     0004    37 b_xll     = 4
                     0005    38 b_yll     = 5
                     0006    39 b_vx      = 6      ;; velocidad bala eje x
                     0007    40 b_vy      = 7      ;; velocidad bala eje y
                     0008    41 b_sta     = 8      ;; estado de la bala
                     0009    42 b_h       = 9      ;; altura de la bala
                     000A    43 b_w       = 10     ;; anchura de la bala
                     000B    44 b_color   = 11     ;; color de la bala (sustituible por puntero a sprite)
                     000C    45 b_canon_l = 12     ;; posicion de memoria del canon en l
                     000D    46 b_canon_h = 13	 ;; posicion de memoria del canon en h
                     000E    47 siceof_b  = 14
                             48 
                             49 
                             50 ;; GLOBAL FUNCTIONS
                             51 
                             52 
                             53 .globl entityman_getArray_Bales
                             54 .globl entityman_num_Bales
ASxxxx Assembler V02.00 + NoICE + SDCC mods  (Zilog Z80 / Hitachi HD64180), page 7.
Hexadecimal [16-Bits]



                             55 
                             56 
                             57 ;; CONSTANTES:
                             58 
                             59 ;; Numero maximo de balas
                             60 
                     0005    61 max_bales == 5
                             62 
                             63 ;; Posicionar centralmente la bala con respecto al sprite
                             64 
                     0002    65 b_inc_pos_x = 2
                     0006    66 b_inc_pos_y = 6
                             67 
                             68 ;; DIMENSIONES POSIBLES DE LA BALA
                             69 
                             70 ;; Cuando va en horizontal
                             71 
                     0002    72 b_width      = 2   ;; anchura de la bala
                     0008    73 b_height     = 8   ;; altura de la bala
                             74 
                             75 ;; Cuando va en vertical
                             76 
                             77 
                             78 
                             79 
                             80 
                             81 ;; Color por defecto de la bala
                             82 
                     00C0    83 reset_bullet_color = 0xC0   ;; Color negro
                             84 
                             85 ;; Velocidades posibles de la bala
                             86 
                     0001    87 pos_vel_h = 1
                     FFFFFFFF    88 neg_vel_h = -1
                     0004    89 pos_vel_v = 4
                     FFFFFFFC    90 neg_vel_v = -4
                     0000    91 sin_vel = 0
                             92 
                             93 ;; Estados de la bala
                             94 
                     0000    95 b_no_shoot  = 0    ;; bala no disparada (estado por defecto)
                     0001    96 b_shoot     = 1    ;; bala disparada
ASxxxx Assembler V02.00 + NoICE + SDCC mods  (Zilog Z80 / Hitachi HD64180), page 8.
Hexadecimal [16-Bits]



                              8 .include "sys/sys_a.h.s"
                              1 ;;
                              2 ;;sys a h
                              3 ;;
                              4 
                              5 .globl animar
                              6 .globl iniciar_animacion_bala
                              7 .globl iniciar_animacion_canon
                              8 .globl limpiar_animaciones
                              9 
                             10 
                             11 
                             12 
                             13 
                             14 
                             15 
                             16 
                             17 
                             18 
                             19 
                             20 
                             21 .macro BalaAni _name2,_x,_y,_con,_w,_h
                             22 _name2::
                             23 .db _x
                             24 .db _y
                             25 .db _con
                             26 .dw 0000
                             27 .db 00
                             28 .db _w
                             29 .db _h
                             30 .endm
                             31 
                             32 
                             33 
                             34 .macro CanonAni _name3,_x,_y,_con,_w,_h
                             35 _name3::
                             36 .db _x
                             37 .db _y
                             38 .db _con
                             39 .dw 0000
                             40 .db 00
                             41 .db _w
                             42 .db _h
                             43 .endm
                             44 
                             45 
                     0000    46 a_x  		= 0
                     0001    47 a_y  		= 1
                     0002    48 a_con  	= 2
                     0003    49 a_punt_l	= 3
                     0004    50 a_punt_h	= 4
                     0005    51 a_ani		= 5
                     0006    52 a_w		= 6
                     0007    53 a_h		= 7
                     0008    54 siceof_ae	= 8
ASxxxx Assembler V02.00 + NoICE + SDCC mods  (Zilog Z80 / Hitachi HD64180), page 9.
Hexadecimal [16-Bits]



                             55 
                     0005    56 duracion_animacion=5
                     0008    57 maximo_balas_animacion=8
                     0004    58 maximo_canon_animacion=4
ASxxxx Assembler V02.00 + NoICE + SDCC mods  (Zilog Z80 / Hitachi HD64180), page 10.
Hexadecimal [16-Bits]



                              9 
                             10 
                             11 
                             12 .globl _balaExpl_sp_0
                             13 .globl _balaExpl_sp_1
                             14 .globl _balaExpl_sp_2
                             15 .globl _balaExpl_sp_3
                             16 
                             17 .globl _canonExpl_0
                             18 .globl _canonExpl_1
                             19 .globl _canonExpl_2
                             20 .globl _canonExpl_3
                             21 
                             22 
   0000                      23 BalaAni anib1 00,00,00,02,08
   0000                       1 anib1::
   0000 00                    2 .db 00
   0001 00                    3 .db 00
   0002 00                    4 .db 00
   0003 00 00                 5 .dw 0000
   0005 00                    6 .db 00
   0006 02                    7 .db 02
   0007 08                    8 .db 08
   0008                      24 BalaAni anib2 00,00,00,02,08
   0008                       1 anib2::
   0008 00                    2 .db 00
   0009 00                    3 .db 00
   000A 00                    4 .db 00
   000B 00 00                 5 .dw 0000
   000D 00                    6 .db 00
   000E 02                    7 .db 02
   000F 08                    8 .db 08
   0010                      25 BalaAni anib3 00,00,00,02,08
   0010                       1 anib3::
   0010 00                    2 .db 00
   0011 00                    3 .db 00
   0012 00                    4 .db 00
   0013 00 00                 5 .dw 0000
   0015 00                    6 .db 00
   0016 02                    7 .db 02
   0017 08                    8 .db 08
   0018                      26 BalaAni anib4 00,00,00,02,08
   0018                       1 anib4::
   0018 00                    2 .db 00
   0019 00                    3 .db 00
   001A 00                    4 .db 00
   001B 00 00                 5 .dw 0000
   001D 00                    6 .db 00
   001E 02                    7 .db 02
   001F 08                    8 .db 08
   0020                      27 BalaAni anib5 00,00,00,02,08
   0020                       1 anib5::
   0020 00                    2 .db 00
   0021 00                    3 .db 00
   0022 00                    4 .db 00
ASxxxx Assembler V02.00 + NoICE + SDCC mods  (Zilog Z80 / Hitachi HD64180), page 11.
Hexadecimal [16-Bits]



   0023 00 00                 5 .dw 0000
   0025 00                    6 .db 00
   0026 02                    7 .db 02
   0027 08                    8 .db 08
   0028                      28 BalaAni anib6 00,00,00,02,08
   0028                       1 anib6::
   0028 00                    2 .db 00
   0029 00                    3 .db 00
   002A 00                    4 .db 00
   002B 00 00                 5 .dw 0000
   002D 00                    6 .db 00
   002E 02                    7 .db 02
   002F 08                    8 .db 08
   0030                      29 BalaAni anib7 00,00,00,02,08
   0030                       1 anib7::
   0030 00                    2 .db 00
   0031 00                    3 .db 00
   0032 00                    4 .db 00
   0033 00 00                 5 .dw 0000
   0035 00                    6 .db 00
   0036 02                    7 .db 02
   0037 08                    8 .db 08
   0038                      30 BalaAni anib8 00,00,00,02,08
   0038                       1 anib8::
   0038 00                    2 .db 00
   0039 00                    3 .db 00
   003A 00                    4 .db 00
   003B 00 00                 5 .dw 0000
   003D 00                    6 .db 00
   003E 02                    7 .db 02
   003F 08                    8 .db 08
                             31 
                             32 
   0040                      33 CanonAni anic1 00,00,00,04,16
   0040                       1 anic1::
   0040 00                    2 .db 00
   0041 00                    3 .db 00
   0042 00                    4 .db 00
   0043 00 00                 5 .dw 0000
   0045 00                    6 .db 00
   0046 04                    7 .db 04
   0047 10                    8 .db 16
   0048                      34 CanonAni anic2 00,00,00,04,16
   0048                       1 anic2::
   0048 00                    2 .db 00
   0049 00                    3 .db 00
   004A 00                    4 .db 00
   004B 00 00                 5 .dw 0000
   004D 00                    6 .db 00
   004E 04                    7 .db 04
   004F 10                    8 .db 16
   0050                      35 CanonAni anic3 00,00,00,04,16
   0050                       1 anic3::
   0050 00                    2 .db 00
   0051 00                    3 .db 00
ASxxxx Assembler V02.00 + NoICE + SDCC mods  (Zilog Z80 / Hitachi HD64180), page 12.
Hexadecimal [16-Bits]



   0052 00                    4 .db 00
   0053 00 00                 5 .dw 0000
   0055 00                    6 .db 00
   0056 04                    7 .db 04
   0057 10                    8 .db 16
   0058                      36 CanonAni anic4 00,00,00,04,16
   0058                       1 anic4::
   0058 00                    2 .db 00
   0059 00                    3 .db 00
   005A 00                    4 .db 00
   005B 00 00                 5 .dw 0000
   005D 00                    6 .db 00
   005E 04                    7 .db 04
   005F 10                    8 .db 16
                             37 
                             38 
                             39 
                             40 
                             41 
   0060 00                   42 _contador_balas: .db 00
   0061 00                   43 _contador_canon: .db 00
                             44 
                             45 
                             46 
                             47 
                             48 
                             49 
                             50 
                             51 
                             52 
                             53 
                             54 
                             55 
                             56 
                             57 
                             58 
                             59 
                             60 
                             61 
                             62 
                             63 
   0062                      64 animar::
                             65 
   0062 3A 60 00      [13]   66 ld a, (_contador_balas)
   0065 B7            [ 4]   67 or a
   0066 28 13         [12]   68 jr z, _no_hay_balas
   0068                      69 _hay_balas:
   0068 DD 21 00 00   [14]   70 	ld ix, #anib1
   006C                      71 	_loop_aimacion_bala:
                             72 	
   006C F5            [11]   73 		push af
                             74 
                             75 				
   006D CD 94 00      [17]   76 			call animacion_bala	
   0070 F1            [10]   77 		pop af
ASxxxx Assembler V02.00 + NoICE + SDCC mods  (Zilog Z80 / Hitachi HD64180), page 13.
Hexadecimal [16-Bits]



   0071 3D            [ 4]   78 		dec a
   0072 28 07         [12]   79 		jr z, _no_hay_balas
   0074 11 08 00      [10]   80 		ld de, #siceof_ae
   0077 DD 19         [15]   81 		add ix,de
   0079 18 F1         [12]   82 	jr _loop_aimacion_bala
                             83 
   007B                      84 _no_hay_balas:
                             85 
                             86 
   007B 3A 61 00      [13]   87 ld a, (_contador_canon)
   007E B7            [ 4]   88 or a
   007F 28 12         [12]   89 jr z, _no_hay_canon
   0081                      90 _hay_canon:
   0081 DD 21 40 00   [14]   91 	ld ix, #anic1
   0085                      92 	_loop_aimacion_canon:
                             93 	
   0085 F5            [11]   94 		push af
                             95 
                             96 				
   0086 CD 94 00      [17]   97 			call animacion_bala	
   0089 F1            [10]   98 		pop af
   008A 3D            [ 4]   99 		dec a
   008B C8            [11]  100 		ret z
   008C 11 08 00      [10]  101 		ld de, #siceof_ae
   008F DD 19         [15]  102 		add ix,de
   0091 18 F2         [12]  103 	jr _loop_aimacion_canon
                            104 
   0093                     105 _no_hay_canon:
                            106 
                            107 
                            108 
   0093 C9            [10]  109 ret
                            110 
                            111 
   0094                     112 animacion_bala::
                            113 
                            114 
   0094 DD 7E 02      [19]  115 ld a, a_con(ix)
   0097 3D            [ 4]  116 dec a
   0098 28 04         [12]  117 jr z, _transicion	
   009A                     118 _actializar_cronometro_bala:
                            119 
   009A DD 77 02      [19]  120 	ld a_con(ix),a	
   009D C9            [10]  121 	ret
                            122 
   009E                     123 _transicion:
                            124 
   009E DD 6E 03      [19]  125 ld l , a_punt_l(ix)
   00A1 DD 66 04      [19]  126 ld h , a_punt_h(ix)
   00A4 22 A8 00      [16]  127 ld (_siguiente_posicion_bala), hl
                            128 
                     00A8   129 _siguiente_posicion_bala=.+1
   00A7 C3 00 00      [10]  130 jp 0000
                            131 
   00AA                     132 _transicion_bala_1:
ASxxxx Assembler V02.00 + NoICE + SDCC mods  (Zilog Z80 / Hitachi HD64180), page 14.
Hexadecimal [16-Bits]



   00AA 11 00 C0      [10]  133 	 ld de, #0xC000
   00AD DD 4E 00      [19]  134 	 ld   c,  a_x(ix)	
   00B0 DD 46 01      [19]  135 	 ld   b,  a_y(ix) 
   00B3 CD 00 00      [17]  136 	 call cpct_getScreenPtr_asm
                            137 	 
   00B6 EB            [ 4]  138 	 ex de, hl
   00B7 DD 4E 06      [19]  139 	 ld c, a_w(ix)  ;;ancho
   00BA DD 46 07      [19]  140 	 ld b, a_h(ix) ;;alto
                            141 
   00BD DD 7E 05      [19]  142 	 ld a, a_ani(ix)
   00C0 B7            [ 4]  143 	 or a
   00C1 28 05         [12]  144 	 jr z, _es_bala
   00C3                     145 	 _es_canon:
   00C3 21 00 00      [10]  146 	 ld hl,#_canonExpl_0
   00C6 18 03         [12]  147 	 jr _salir_canon
   00C8                     148 	 _es_bala:
   00C8 21 00 00      [10]  149 	  ld hl,#_balaExpl_sp_0
   00CB                     150  	_salir_canon:
                            151 	  
   00CB CD 00 00      [17]  152 	 call cpct_drawSprite_asm
                            153 
   00CE 11 00 80      [10]  154 	 ld de, #0x8000
   00D1 DD 4E 00      [19]  155 	 ld   c,  a_x(ix)	
   00D4 DD 46 01      [19]  156 	 ld   b,  a_y(ix) 
   00D7 CD 00 00      [17]  157 	 call cpct_getScreenPtr_asm
                            158 	 
   00DA EB            [ 4]  159 	 ex de, hl
   00DB DD 4E 06      [19]  160 	 ld c, a_w(ix)  ;;ancho
   00DE DD 46 07      [19]  161 	 ld b, a_h(ix) ;;alto
                            162 
   00E1 DD 7E 05      [19]  163 	 ld a, a_ani(ix)
   00E4 B7            [ 4]  164 	 or a
   00E5 28 05         [12]  165 	 jr z, _es_bala_01
   00E7                     166 	 _es_canon02:
   00E7 21 00 00      [10]  167 	 ld hl,#_canonExpl_0
   00EA 18 03         [12]  168 	 jr _salir_canon_01
   00EC                     169 	 _es_bala_01:
   00EC 21 00 00      [10]  170 	  ld hl,#_balaExpl_sp_0
   00EF                     171  	_salir_canon_01:
                            172 	  
   00EF CD 00 00      [17]  173 	 call cpct_drawSprite_asm
                            174 	 
                            175 
   00F2 21 FE 00      [10]  176 	 ld hl, #_transicion_bala_2
   00F5 DD 75 03      [19]  177 	ld  a_punt_l(ix), l
   00F8 DD 74 04      [19]  178 	ld  a_punt_h(ix), h
                            179 
   00FB C3 7F 02      [10]  180 	 jp _reiniciar_contador_bala
                            181 
   00FE                     182 _transicion_bala_2:
   00FE 11 00 C0      [10]  183 	 ld de, #0xC000
   0101 DD 4E 00      [19]  184 	 ld   c,  a_x(ix)	
   0104 DD 46 01      [19]  185 	 ld   b,  a_y(ix) 
   0107 CD 00 00      [17]  186 	 call cpct_getScreenPtr_asm
                            187 	 
ASxxxx Assembler V02.00 + NoICE + SDCC mods  (Zilog Z80 / Hitachi HD64180), page 15.
Hexadecimal [16-Bits]



   010A EB            [ 4]  188 	 ex de, hl
   010B DD 4E 06      [19]  189 	 ld c, a_w(ix)  ;;ancho
   010E DD 46 07      [19]  190 	 ld b, a_h(ix) ;;alto
                            191 
   0111 DD 7E 05      [19]  192 	  ld a, a_ani(ix)
   0114 B7            [ 4]  193 	 or a
   0115 28 05         [12]  194 	 jr z, _es_bala1
   0117                     195 	 _es_canon1:
   0117 21 00 00      [10]  196 	 ld hl,#_canonExpl_1
   011A 18 03         [12]  197 	 jr _salir_canon1
   011C                     198 	 _es_bala1:
   011C 21 00 00      [10]  199 	  ld hl,#_balaExpl_sp_1
   011F                     200 	   _salir_canon1:
                            201 
   011F CD 00 00      [17]  202 	 call cpct_drawSprite_asm
                            203 
                            204 
   0122 11 00 80      [10]  205 	  ld de, #0x8000
   0125 DD 4E 00      [19]  206 	 ld   c,  a_x(ix)	
   0128 DD 46 01      [19]  207 	 ld   b,  a_y(ix) 
   012B CD 00 00      [17]  208 	 call cpct_getScreenPtr_asm
                            209 	 
   012E EB            [ 4]  210 	 ex de, hl
   012F DD 4E 06      [19]  211 	 ld c, a_w(ix)  ;;ancho
   0132 DD 46 07      [19]  212 	 ld b, a_h(ix) ;;alto
                            213 
   0135 DD 7E 05      [19]  214 	  ld a, a_ani(ix)
   0138 B7            [ 4]  215 	 or a
   0139 28 05         [12]  216 	 jr z, _es_bala12
   013B                     217 	 _es_canon12:
   013B 21 00 00      [10]  218 	 ld hl,#_canonExpl_1
   013E 18 03         [12]  219 	 jr _salir_canon12
   0140                     220 	 _es_bala12:
   0140 21 00 00      [10]  221 	  ld hl,#_balaExpl_sp_1
   0143                     222 	   _salir_canon12:
                            223 
   0143 CD 00 00      [17]  224 	 call cpct_drawSprite_asm
                            225 	
                            226 
   0146 21 52 01      [10]  227 	 ld hl, #_transicion_bala_3
   0149 DD 75 03      [19]  228 	 ld  a_punt_l(ix), l
   014C DD 74 04      [19]  229 	 ld  a_punt_h(ix), h
                            230 
   014F C3 7F 02      [10]  231 	  jp _reiniciar_contador_bala
                            232 
   0152                     233 _transicion_bala_3:
                            234 
   0152 11 00 C0      [10]  235 	 ld de, #0xC000
   0155 DD 4E 00      [19]  236 	 ld   c,  a_x(ix)	
   0158 DD 46 01      [19]  237 	 ld   b,  a_y(ix) 
   015B CD 00 00      [17]  238 	 call cpct_getScreenPtr_asm
                            239 	 
   015E EB            [ 4]  240 	 ex de, hl
   015F DD 4E 06      [19]  241 	 ld c, a_w(ix)  ;;ancho
   0162 DD 46 07      [19]  242 	 ld b, a_h(ix) ;;alto
ASxxxx Assembler V02.00 + NoICE + SDCC mods  (Zilog Z80 / Hitachi HD64180), page 16.
Hexadecimal [16-Bits]



                            243 	
   0165 DD 7E 05      [19]  244 	ld a, a_ani(ix)
   0168 B7            [ 4]  245 	 or a
   0169 28 05         [12]  246 	 jr z, _es_bala2
   016B                     247 	 _es_canon2:
   016B 21 00 00      [10]  248 	 ld hl,#_canonExpl_2
   016E 18 03         [12]  249 	 jr _salir_canon2
   0170                     250 	 _es_bala2:
   0170 21 00 00      [10]  251 	  ld hl,#_balaExpl_sp_2
   0173                     252 	   _salir_canon2:
                            253 
   0173 CD 00 00      [17]  254 	 call cpct_drawSprite_asm
                            255 
                            256 
   0176 11 00 80      [10]  257 	  ld de, #0x8000
   0179 DD 4E 00      [19]  258 	 ld   c,  a_x(ix)	
   017C DD 46 01      [19]  259 	 ld   b,  a_y(ix) 
   017F CD 00 00      [17]  260 	 call cpct_getScreenPtr_asm
                            261 	 
   0182 EB            [ 4]  262 	 ex de, hl
   0183 DD 4E 06      [19]  263 	 ld c, a_w(ix)  ;;ancho
   0186 DD 46 07      [19]  264 	 ld b, a_h(ix) ;;alto
                            265 	
   0189 DD 7E 05      [19]  266 	ld a, a_ani(ix)
   018C B7            [ 4]  267 	 or a
   018D 28 05         [12]  268 	 jr z, _es_bala22
   018F                     269 	 _es_canon22:
   018F 21 00 00      [10]  270 	 ld hl,#_canonExpl_2
   0192 18 03         [12]  271 	 jr _salir_canon22
   0194                     272 	 _es_bala22:
   0194 21 00 00      [10]  273 	  ld hl,#_balaExpl_sp_2
   0197                     274 	   _salir_canon22:
                            275 
   0197 CD 00 00      [17]  276 	 call cpct_drawSprite_asm
                            277 	
                            278 
   019A 21 A6 01      [10]  279 	  ld hl, #_transicion_bala_4
   019D DD 75 03      [19]  280 	  ld  a_punt_l(ix), l
   01A0 DD 74 04      [19]  281 	  ld  a_punt_h(ix), h
                            282 
   01A3 C3 7F 02      [10]  283 	  jp _reiniciar_contador_bala
                            284 
   01A6                     285 _transicion_bala_4:
                            286 
   01A6 11 00 C0      [10]  287 	 ld de, #0xC000
   01A9 DD 4E 00      [19]  288 	 ld   c,  a_x(ix)	
   01AC DD 46 01      [19]  289 	 ld   b,  a_y(ix) 
   01AF CD 00 00      [17]  290 	 call cpct_getScreenPtr_asm
                            291 	 
   01B2 EB            [ 4]  292 	 ex de, hl
   01B3 DD 4E 06      [19]  293 	 ld c, a_w(ix)  ;;ancho
   01B6 DD 46 07      [19]  294 	 ld b, a_h(ix) ;;alto
                            295 
   01B9 DD 7E 05      [19]  296 	ld a, a_ani(ix)
   01BC B7            [ 4]  297 	 or a
ASxxxx Assembler V02.00 + NoICE + SDCC mods  (Zilog Z80 / Hitachi HD64180), page 17.
Hexadecimal [16-Bits]



   01BD 28 05         [12]  298 	 jr z, _es_bala3
   01BF                     299 	 _es_canon3:
   01BF 21 00 00      [10]  300 	 ld hl,#_canonExpl_3
   01C2 18 03         [12]  301 	 jr _salir_canon3
   01C4                     302 	 _es_bala3:
   01C4 21 00 00      [10]  303 	  ld hl,#_balaExpl_sp_3
   01C7                     304 	   _salir_canon3:
                            305 
   01C7 CD 00 00      [17]  306 	 call cpct_drawSprite_asm
                            307 
                            308 
                            309 
   01CA 11 00 80      [10]  310 	 ld de, #0x8000
   01CD DD 4E 00      [19]  311 	 ld   c,  a_x(ix)	
   01D0 DD 46 01      [19]  312 	 ld   b,  a_y(ix) 
   01D3 CD 00 00      [17]  313 	 call cpct_getScreenPtr_asm
                            314 	 
   01D6 EB            [ 4]  315 	 ex de, hl
   01D7 DD 4E 06      [19]  316 	 ld c, a_w(ix)  ;;ancho
   01DA DD 46 07      [19]  317 	 ld b, a_h(ix) ;;alto
                            318 
   01DD DD 7E 05      [19]  319 	ld a, a_ani(ix)
   01E0 B7            [ 4]  320 	 or a
   01E1 28 05         [12]  321 	 jr z, _es_bala32
   01E3                     322 	 _es_canon32:
   01E3 21 00 00      [10]  323 	 ld hl,#_canonExpl_3
   01E6 18 03         [12]  324 	 jr _salir_canon32
   01E8                     325 	 _es_bala32:
   01E8 21 00 00      [10]  326 	  ld hl,#_balaExpl_sp_3
   01EB                     327 	   _salir_canon32:
                            328 
   01EB CD 00 00      [17]  329 	 call cpct_drawSprite_asm
                            330 
                            331 	
                            332 
   01EE 21 FA 01      [10]  333 	ld hl, #limpiar_b
   01F1 DD 75 03      [19]  334 	  ld  a_punt_l(ix), l
   01F4 DD 74 04      [19]  335 	  ld  a_punt_h(ix), h
                            336 
   01F7 C3 7F 02      [10]  337 	 jp _reiniciar_contador_bala
                            338 
                            339 
   01FA                     340 limpiar_b::
                            341 
   01FA 11 00 C0      [10]  342  ld de ,#0xc000
                            343 
   01FD DD 4E 00      [19]  344  	 ld   c,  a_x(ix)	
   0200 DD 46 01      [19]  345 	 ld   b,  a_y(ix) 
                            346 
   0203 CD 00 00      [17]  347 	call cpct_getScreenPtr_asm    ;; Calculate video memory location and return it in HL
   0206 EB            [ 4]  348 	 ex  de,hl	
   0207 3E 00         [ 7]  349 	ld  a, #0x00   ;; color
   0209 DD 4E 06      [19]  350 	 ld c, a_w(ix)  ;;ancho
   020C DD 46 07      [19]  351 	 ld b, a_h(ix) ;;alto
   020F CD 00 00      [17]  352 	call cpct_drawSolidBox_asm
ASxxxx Assembler V02.00 + NoICE + SDCC mods  (Zilog Z80 / Hitachi HD64180), page 18.
Hexadecimal [16-Bits]



                            353 
   0212 11 00 80      [10]  354   ld de ,#0x8000
   0215 DD 4E 00      [19]  355 	 ld   c,  a_x(ix)	
   0218 DD 46 01      [19]  356 	 ld   b,  a_y(ix) 
                            357 
   021B CD 00 00      [17]  358 	call cpct_getScreenPtr_asm    ;; Calculate video memory location and return it in HL
   021E EB            [ 4]  359 	 ex  de,hl	
   021F 3E 00         [ 7]  360 	ld  a, #0x00   ;; color
   0221 DD 4E 06      [19]  361 	  ld c, a_w(ix)  ;;ancho
   0224 DD 46 07      [19]  362 	 ld b, a_h(ix) ;;alto
   0227 CD 00 00      [17]  363 	call cpct_drawSolidBox_asm
                            364 
                            365 
                            366 
                            367 	
                            368 	
   022A DD 22 2F 02   [20]  369 	ld (_pasar_ix_hl), ix
                     022F   370 	_pasar_ix_hl=.+1
   022E 11 00 00      [10]  371 	ld de, #0000
   0231 21 08 00      [10]  372 	ld hl, #siceof_ae
   0234 19            [11]  373 	add hl,de 
                            374 	 
                            375 
   0235 DD 7E 05      [19]  376 	ld a, a_ani(ix)
   0238 B7            [ 4]  377 	 or a
   0239 28 22         [12]  378 	 jr z, _limpiar_bala
   023B                     379 	 _limpiar_canon:
                            380 
   023B 06 00         [ 7]  381 	 ld b, #0	
   023D 3A 61 00      [13]  382 		ld a, (_contador_canon)
   0240 4F            [ 4]  383 	    	ld c, a
   0241 0D            [ 4]  384 	    	dec c
   0242 79            [ 4]  385 	    	ld a, c
   0243 B7            [ 4]  386 	    	or a
   0244 28 0F         [12]  387 	    	jr z,_salimos_c
                            388 	    
                            389 	    
   0246 0E 00         [ 7]  390 	    	ld c, #0
   0248                     391 	    	_multi_c:
   0248 0C            [ 4]  392 		    	inc c
   0249 0C            [ 4]  393 		    	inc c
   024A 0C            [ 4]  394 		    	inc c
   024B 0C            [ 4]  395 		    	inc c
   024C 0C            [ 4]  396 		    	inc c
   024D 0C            [ 4]  397 		    	inc c
   024E 0C            [ 4]  398 		    	inc c
   024F 0C            [ 4]  399 		    	inc c
   0250 3D            [ 4]  400 		dec a
   0251 20 F5         [12]  401 		jr nz, _multi_c
                            402 		
   0253 ED B0         [21]  403 	    	ldir
                            404 
                            405 	    
   0255                     406 		_salimos_c:
   0255 3A 61 00      [13]  407 	    	ld a, (_contador_canon)
ASxxxx Assembler V02.00 + NoICE + SDCC mods  (Zilog Z80 / Hitachi HD64180), page 19.
Hexadecimal [16-Bits]



   0258 3D            [ 4]  408 	    	dec a
   0259 32 61 00      [13]  409 	    	ld (_contador_canon),a
                            410 
   025C C9            [10]  411 	    	ret
                            412 
                            413 
   025D                     414 	_limpiar_bala:
   025D 06 00         [ 7]  415 		ld b, #0	
   025F 3A 60 00      [13]  416 		ld a, (_contador_balas)
   0262 4F            [ 4]  417 	    	ld c, a
   0263 0D            [ 4]  418 	    	dec c
   0264 79            [ 4]  419 	    	ld a, c
   0265 B7            [ 4]  420 	    	or a
   0266 28 0F         [12]  421 	    	jr z,_salimos
                            422 	    
                            423 	    
   0268 0E 00         [ 7]  424 	    	ld c, #0
   026A                     425 	    	_multi:
   026A 0C            [ 4]  426 		    	inc c
   026B 0C            [ 4]  427 		    	inc c
   026C 0C            [ 4]  428 		    	inc c
   026D 0C            [ 4]  429 		    	inc c
   026E 0C            [ 4]  430 		    	inc c
   026F 0C            [ 4]  431 		    	inc c
   0270 0C            [ 4]  432 		    	inc c
   0271 0C            [ 4]  433 		    	inc c
   0272 3D            [ 4]  434 		dec a
   0273 20 F5         [12]  435 		jr nz, _multi
                            436 		
   0275 ED B0         [21]  437 	    	ldir
                            438 
                            439 	    
   0277                     440 		_salimos:
   0277 3A 60 00      [13]  441 	    	ld a, (_contador_balas)
   027A 3D            [ 4]  442 	    	dec a
   027B 32 60 00      [13]  443 	    	ld (_contador_balas),a
                            444 
                            445 
                            446     	
                            447     	
                            448 
                            449 
                            450     
                            451 	
                            452 
   027E C9            [10]  453 ret
                            454 
   027F                     455 _reiniciar_contador_bala:
   027F 3E 05         [ 7]  456 	ld a, #duracion_animacion
   0281 DD 77 02      [19]  457 	ld a_con(ix), a
   0284 C9            [10]  458 ret
                            459 
   0285                     460 animacion_tanque:
                            461 
   0285 C9            [10]  462 ret
ASxxxx Assembler V02.00 + NoICE + SDCC mods  (Zilog Z80 / Hitachi HD64180), page 20.
Hexadecimal [16-Bits]



                            463 
                            464 
                            465 
   0286                     466 iniciar_animacion_bala::
   0286 FD 21 00 00   [14]  467 ld iy, #anib1
   028A 3A 60 00      [13]  468 ld a, (_contador_balas)
   028D B7            [ 4]  469 or a
   028E 28 0F         [12]  470 jr z,_primera_posicion
   0290 FE 08         [ 7]  471 	cp #maximo_balas_animacion
   0292 20 01         [12]  472 	jr nz,_no_maximo
                            473 	
   0294 C9            [10]  474 	ret
   0295                     475 	_no_maximo:
   0295                     476 	loop_colocar:
   0295 11 08 00      [10]  477 		ld de, #siceof_ae
   0298 FD 19         [15]  478 		add iy,de
   029A 3D            [ 4]  479 		dec a
   029B 28 02         [12]  480 		jr z,_no_hay_mas
   029D 18 F6         [12]  481 	jr loop_colocar
                            482 
                            483 
   029F                     484 _no_hay_mas:
                            485 
   029F                     486 _primera_posicion:
                            487 
                            488 
                            489 
                            490 
   029F DD 7E 00      [19]  491 ld a, e_x(ix)
   02A2 FD 77 00      [19]  492 ld a_x(iy), a
   02A5 DD 7E 01      [19]  493 ld a, e_y(ix)
   02A8 FD 77 01      [19]  494 ld a_y(iy), a
                            495 
   02AB 3E 02         [ 7]  496 ld a,#02
   02AD FD 77 06      [19]  497 ld a_w(iy), a
   02B0 3E 08         [ 7]  498 ld a,#08
   02B2 FD 77 07      [19]  499 ld a_h(iy), a
                            500 
   02B5 21 AA 00      [10]  501 ld hl, #_transicion_bala_1
   02B8 FD 75 03      [19]  502 ld  a_punt_l(iy), l
   02BB FD 74 04      [19]  503 ld  a_punt_h(iy), h
                            504 
   02BE FD 36 02 05   [19]  505 ld a_con(iy), #duracion_animacion
                            506 
   02C2 3A 60 00      [13]  507 ld a, (_contador_balas)
   02C5 3C            [ 4]  508 inc a
   02C6 32 60 00      [13]  509 ld (_contador_balas),a 
                            510 
   02C9 C9            [10]  511 ret
                            512 
                            513 
                            514 
                            515 
                            516 
                            517 
ASxxxx Assembler V02.00 + NoICE + SDCC mods  (Zilog Z80 / Hitachi HD64180), page 21.
Hexadecimal [16-Bits]



                            518 
   02CA                     519 iniciar_animacion_canon::
                            520 
   02CA DD 21 40 00   [14]  521 ld ix, #anic1
   02CE 3A 61 00      [13]  522 ld a, (_contador_canon)
   02D1 B7            [ 4]  523 or a
   02D2 28 0F         [12]  524 jr z,_primera_posicion_canon
   02D4 FE 04         [ 7]  525 	cp #maximo_canon_animacion
   02D6 20 01         [12]  526 	jr nz,_no_maximo_canon
                            527 	
   02D8 C9            [10]  528 	ret
   02D9                     529 	_no_maximo_canon:
   02D9                     530 	loop_colocar_canon:
   02D9 11 08 00      [10]  531 		ld de, #siceof_ae
   02DC DD 19         [15]  532 		add ix,de
   02DE 3D            [ 4]  533 		dec a
   02DF 28 02         [12]  534 		jr z,_no_hay_mas_canon
   02E1 18 F6         [12]  535 	jr loop_colocar_canon
                            536 
                            537 
   02E3                     538 _no_hay_mas_canon:
                            539 
   02E3                     540 _primera_posicion_canon:
                            541 
                            542 
                            543 
                            544 
   02E3 FD 7E 00      [19]  545 ld a, b_x(iy)
   02E6 DD 77 00      [19]  546 ld a_x(ix), a
   02E9 FD 7E 01      [19]  547 ld a, b_y(iy)
   02EC DD 77 01      [19]  548 ld a_y(ix), a
                            549 
   02EF 3E 04         [ 7]  550 ld a,#04
   02F1 DD 77 06      [19]  551 ld a_w(ix), a
   02F4 3E 10         [ 7]  552 ld a,#16
   02F6 DD 77 07      [19]  553 ld a_h(ix), a
   02F9 3E 01         [ 7]  554 ld a, #1
   02FB DD 77 05      [19]  555 ld a_ani(ix), a
                            556 
   02FE 21 AA 00      [10]  557 ld hl, #_transicion_bala_1
   0301 DD 75 03      [19]  558 ld  a_punt_l(ix), l
   0304 DD 74 04      [19]  559 ld  a_punt_h(ix), h
                            560 
   0307 DD 36 02 05   [19]  561 ld a_con(ix), #duracion_animacion
                            562 
   030B 3A 61 00      [13]  563 ld a, (_contador_canon)
   030E 3C            [ 4]  564 inc a
   030F 32 61 00      [13]  565 ld (_contador_canon),a 
                            566 
   0312 C9            [10]  567 ret
                            568 
                            569 
   0313                     570 limpiar_animaciones::
   0313 21 00 00      [10]  571 ld hl, #anib1
   0316 EB            [ 4]  572 ex de, hl
ASxxxx Assembler V02.00 + NoICE + SDCC mods  (Zilog Z80 / Hitachi HD64180), page 22.
Hexadecimal [16-Bits]



   0317 21 00 00      [10]  573 ld hl, #anib1
   031A 13            [ 6]  574 inc de
   031B 36 00         [10]  575 ld (hl),#0
   031D 01 3F 00      [10]  576 ld bc, #63
   0320 ED B0         [21]  577 ldir
                            578 
   0322 21 40 00      [10]  579 ld hl, #anic1
   0325 EB            [ 4]  580 ex de, hl
   0326 21 40 00      [10]  581 ld hl, #anic1
                            582 
   0329 13            [ 6]  583 inc de
   032A 36 00         [10]  584 ld (hl),#0
   032C 01 1F 00      [10]  585 ld bc, #31
   032F ED B0         [21]  586 ldir
                            587 
   0331 3E 00         [ 7]  588 ld a, #0
   0333 32 60 00      [13]  589 ld (_contador_balas),a
   0336 32 61 00      [13]  590 ld (_contador_canon),a
                            591 
                            592 
                            593 
                            594 
                            595 
   0339 C9            [10]  596 ret
