ASxxxx Assembler V02.00 + NoICE + SDCC mods  (Zilog Z80 / Hitachi HD64180), page 1.
Hexadecimal [16-Bits]



                              1 ;;
                              2 ;;man create nivel
                              3 ;;
                              4 
ASxxxx Assembler V02.00 + NoICE + SDCC mods  (Zilog Z80 / Hitachi HD64180), page 2.
Hexadecimal [16-Bits]



                              5 .include "man_create_nivel.h.s"
                              1 ;;
                              2 ;;man create nivel h
                              3 ;;
                              4 
                              5 
                     0000     6 sin_nivel=0
                     0001     7 siguiente_nivel=1
                     0002     8 partida_terminada=2
                              9 
                             10 ;; EN VELOCIDAD DE LA IA MAXIMO DIFICULTAD 2
                             11 ;; EN VELOCIDAD DE LA BALA MAXIMO DIFICULTAD 2
                             12 ;; EN NIVEL IA MAXIMO DIFICULTAD 4
                     0001    13 dificultad1=1
                     0002    14 dificultad2=2
                     0003    15 dificultad3=3
                     0004    16 dificultad4=4
                             17 
                     0001    18 mapa_1=1
                     0002    19 mapa_2=2
                     0003    20 mapa_3=3
                     0004    21 mapa_4=4
                     0005    22 mapa_5=5
                     0006    23 mapa_6=6
                     0007    24 mapa_single_1=7
                     0008    25 mapa_single_2=8
                     0009    26 mapa_single_3=9
                     000A    27 mapa_single_4=10
                     000B    28 mapa_single_5=11
                     000C    29 mapa_single_6=12
                             30 
                             31 
                             32 .globl crear_nivel_single
                             33 .globl crear_nivel_multi
                             34 .globl sistema_reiniciar_niveles
                             35 .globl estado_nivel_single
ASxxxx Assembler V02.00 + NoICE + SDCC mods  (Zilog Z80 / Hitachi HD64180), page 3.
Hexadecimal [16-Bits]



                              6 .include "sys/sys_map_creator.h.s"
                              1 ;;
                              2 ;;sys_map_creator h
                              3 ;;
                              4 
                              5 
                              6 
                              7 
                              8 .globl draw_map_sinhud
                              9 .globl draw_map
                             10 .globl next_map
                             11 .globl reset_lvl
                             12 .globl cambiar_colisiones
ASxxxx Assembler V02.00 + NoICE + SDCC mods  (Zilog Z80 / Hitachi HD64180), page 4.
Hexadecimal [16-Bits]



                              7 .include "sys/ia_control_sys.h.s"
                              1 ;;
                              2 ;;IA ENTITY CONTROL SYSTEM h
                              3 ;;
                              4 
                              5 
                              6 ;; siempre impar que sino la liamos 
                     0033     7 _dificultad_ia_nive1=51
                     0029     8 _dificultad_ia_nive2=41
                     0019     9 _dificultad_ia_nive3=25
                     000F    10 _dificultad_ia_nive4=15
                             11 
                     0001    12 _nivel_1x=1
                     0004    13 _nivel_1y=4
                     0002    14 _nivel_2x=2
                     0008    15 _nivel_2y=8
                             16 
                     FFFFFFFF    17 _nivel_1x_n=-1
                     FFFFFFFC    18 _nivel_1y_n=-4
                     FFFFFFFE    19 _nivel_2x_n=-2
                     FFFFFFF8    20 _nivel_2y_n=-8
                             21 
                             22 
                             23 
                             24 
                             25 
                             26 
                             27 
                             28 .globl sys_ai_control_update
                             29 .globl sys_ai_control_init
                             30 .globl sys_ai_patrol
                             31 .globl sys_ia_stand_by
                             32 
                             33 .globl cambiar_dificultad_ia
                             34 .globl cambiar_velocidad_ia
                             35 
ASxxxx Assembler V02.00 + NoICE + SDCC mods  (Zilog Z80 / Hitachi HD64180), page 5.
Hexadecimal [16-Bits]



                              8 .include "sys/sys_create_bullet.h.s"
                              1 ;;
                              2 ;;sys create bullet h
                              3 ;;
                              4 
                              5 .globl sys_create_bullet_init
                              6 .globl create_bullets_array
                              7 .globl hacer_disparo
                              8 
                              9 
                             10 
                     0001    11 _nivel_1x=1
                     0004    12 _nivel_1y=4
                     0002    13 _nivel_2x=2
                     0008    14 _nivel_2y=8
                             15 
                     FFFFFFFF    16 _nivel_1x_n=-1
                     FFFFFFFC    17 _nivel_1y_n=-4
                     FFFFFFFE    18 _nivel_2x_n=-2
                     FFFFFFF8    19 _nivel_2y_n=-8
                             20 
                             21 
                             22 .globl velocidad_balas
ASxxxx Assembler V02.00 + NoICE + SDCC mods  (Zilog Z80 / Hitachi HD64180), page 6.
Hexadecimal [16-Bits]



                              9 .include "sys/sys_interrup_music.h.s"
                              1 ;;
                              2 ;;sys_interrup_music h
                              3 ;;
                              4 
                              5 
                              6 ;;canciones
                              7 .globl _song
                              8 .globl _song2
                              9 .globl _song3
                             10 .globl _song4
                             11 
                             12 
                             13 
                             14 ;;funciones
                             15 .globl generate_music
                             16 
                             17 
                             18 .globl sonido_disparo
                             19 .globl sonido_muerte
                             20 .globl sonido_win
                             21 .globl sonido_interaccion
                             22 
                             23 .globl off_muerte
                             24 
                             25 
                             26 .globl cancion1
                             27 .globl cancion2
                             28 .globl cancion3
                             29 .globl cancion4
                             30 
                             31 .globl stopmusic
                             32 .globl next_song
                             33 
                             34 
                             35 
ASxxxx Assembler V02.00 + NoICE + SDCC mods  (Zilog Z80 / Hitachi HD64180), page 7.
Hexadecimal [16-Bits]



                             10 .include "sys/sys_map_colision.h.s"
                              1 ;;
                              2 ;;sys map colision h
                              3 ;;
                              4 
                              5 
                     0000     6 sin_inicializar=0
                     0001     7 siguiente_colision=1
                     0002     8 partida_terminada=2
                              9 
                             10 .globl comp_colisiones
                             11 .globl buscar_tile
                             12 .globl reiniciar_colisiones
ASxxxx Assembler V02.00 + NoICE + SDCC mods  (Zilog Z80 / Hitachi HD64180), page 8.
Hexadecimal [16-Bits]



                             11 .include "sys/sys_patrol.h.s"
                              1 ;;
                              2 ;;sys_patrol.h.s
                              3 ;;
                              4 
                              5 .globl patrol_nivel_single1
                              6 .globl patrol_nivel_single2
                              7 .globl patrol_nivel_single3
                              8 .globl patrol_nivel_single4
                              9 .globl patrol_nivel_single5
                             10 .globl patrol_nivel_single6
                             11 
                             12 
                             13 .globl patrol_nivel_multi1
                             14 .globl patrol_nivel_multi2
                             15 .globl patrol_nivel_multi3
                             16 .globl patrol_nivel_multi4
                             17 .globl patrol_nivel_multi5
                             18 .globl patrol_nivel_multi6
ASxxxx Assembler V02.00 + NoICE + SDCC mods  (Zilog Z80 / Hitachi HD64180), page 9.
Hexadecimal [16-Bits]



                             12 .include "sys/sys_posicionar_entities.h.s"
                              1 ;;
                              2 ;;sys_posicionar entities h
                              3 ;;
                              4 .globl posicion_entities
                              5 .globl reiniciar_posiciones
                     0000     6 sin_posicion=0
                     0001     7 siguiente_posicion=1
                     0002     8 partida_terminada=2
                              9 
                     0000    10 hay_entidad=0
                     0001    11 no_hay_entidad=1
ASxxxx Assembler V02.00 + NoICE + SDCC mods  (Zilog Z80 / Hitachi HD64180), page 10.
Hexadecimal [16-Bits]



                             13 .include "man/st_game_over.h.s"
                              1 ;;
                              2 ;;Draw map h
                              3 ;;
                              4 
                              5 .globl updategameover_init
                              6 .globl updategameover
                              7 .globl set_winner_pos
                              8 .globl estado_game_over
                              9 .globl reiniciar_gameover
                             10 .globl single_end_init
                             11 .globl single_end_update
                             12 .globl kill_all
                             13 
                     0001    14 single_muere=1
                     0000    15 mueren_todos=0
ASxxxx Assembler V02.00 + NoICE + SDCC mods  (Zilog Z80 / Hitachi HD64180), page 11.
Hexadecimal [16-Bits]



                             14 .include "sys/sys_kill_bullet.h.s"
                              1 ;;
                              2 ;;sys_kill_bullet h
                              3 ;;
                              4 
                              5 
                              6 ;; FUNCIONES GLOBALES
                              7 .globl kill_bullet_init
                              8 .globl kill_bullet
                              9 .globl kill_bullet_all
                             10 
                             11 
                             12 ;; CONSTANTES
                             13 
                     FFFFFFFF    14 _bala_disponible = -1
                     0004    15 _id_last_bullet = 4      ;; NUMERO MAXIMO DE BALAS - 1
ASxxxx Assembler V02.00 + NoICE + SDCC mods  (Zilog Z80 / Hitachi HD64180), page 12.
Hexadecimal [16-Bits]



                             15 
   0000 00                   16 estado_nivel_single:: .db #00
   0001 00                   17 estado_nivel_multi: .db #00
                             18 ;; funcion para inicializar los niveles LLAMAR A ESTA FUNCION LA PRIMERA VEZ
                             19 
                             20 
                             21 
                             22 
                             23 ;;;;;;;;;;;;;;;;;;;;;;;;;;;;;;;;;;;;;;
                             24 ;;;;;;;;;;;;;;;;;;;;;;;;;;;;;;;;;;;;;;
                             25 ;;GENERADOR NIVELES SINGLE_PLAYER;;;;;
                             26 ;;;;;;;;;;;;;;;;;;;;;;;;;;;;;;;;;;;;;;
                             27 ;;;;;;;;;;;;;;;;;;;;;;;;;;;;;;;;;;;;;;
                             28 
                             29 
                             30 
   0002                      31 crear_nivel_single::
                             32 
                             33 
                             34 
                             35 
                             36 
   0002 3A 00 00      [13]   37 ld a, (estado_nivel_single)
   0005 FE 00         [ 7]   38 cp #sin_nivel
   0007 20 0B         [12]   39 jr nz,_NO_inicializar_nivel1 ;; Comprobamos si el nivel actual es 0 o otro para inicializar o ir al siguiente
   0009                      40 _inicializar_nivel1:	;; inicializo el nivel y lo pongo en el nivel_1
   0009 21 20 00      [10]   41 ld hl, #nivel_1
   000C 22 1B 00      [16]   42 ld(_puntero_nivel),hl
                             43 
   000F 3E 01         [ 7]   44 ld a, #siguiente_nivel ;;pongo el estado a siguiente nivel para que salte a los siguientes y no inicialice
   0011 32 00 00      [13]   45 ld (estado_nivel_single),a
                             46 
   0014                      47 _NO_inicializar_nivel1: ;; salto al nivel que toca
                             48 
   0014 CD 00 00      [17]   49 call estado_game_over
   0017 3D            [ 4]   50 dec a
   0018 28 03         [12]   51 jr z,_reiniciar_posiciones
                             52 
                             53 
                     001B    54  _puntero_nivel=.+1
   001A C3 00 00      [10]   55  jp 0000
                             56 
   001D                      57  _reiniciar_posiciones:
                             58 
                     001E    59   _puntero_nivel_reinicio=.+1
   001D C3 00 00      [10]   60  jp 0000
                             61  
                             62 ;;;;;;;;;;;;;;;;;;;;;;;;;
                             63 ;;NIVEL 1 single player;;
                             64 ;;;;;;;;;;;;;;;;;;;;;;;;;
                             65 
   0020                      66 nivel_1::
                             67 	
   0020 CD 00 00      [17]   68  call posicion_entities
   0023 CD 00 00      [17]   69  call patrol_nivel_single1
ASxxxx Assembler V02.00 + NoICE + SDCC mods  (Zilog Z80 / Hitachi HD64180), page 13.
Hexadecimal [16-Bits]



   0026 CD 00 00      [17]   70  call cambiar_colisiones
                             71  
   0029 CD 00 00      [17]   72  call next_map
                             73 
                             74  
   002C 3E 01         [ 7]   75  ld a, #dificultad1
   002E CD 00 00      [17]   76  call cambiar_velocidad_ia
                             77 
   0031 3E 01         [ 7]   78  ld a, #dificultad1
   0033 CD 00 00      [17]   79  call cambiar_dificultad_ia
                             80 
   0036 3E 01         [ 7]   81  ld a, #dificultad1 
   0038 CD 00 00      [17]   82  call velocidad_balas
                             83 
                             84 
   003B CD 00 00      [17]   85  call next_song
                             86 
   003E 21 4B 00      [10]   87 ld hl, #nivel_2		;;preparo para ir al siguiente nivel
   0041 22 1B 00      [16]   88 ld(_puntero_nivel),hl
                             89 
   0044 21 20 00      [10]   90 ld hl, #nivel_1		
   0047 22 1E 00      [16]   91 ld(_puntero_nivel_reinicio),hl
                             92 
   004A C9            [10]   93 ret
                             94 
                             95 
                             96 ;;;;;;;;;;;;;;;;;;;;;;;;;
                             97 ;;NIVEL 2 single player;;
                             98 ;;;;;;;;;;;;;;;;;;;;;;;;;
                             99 
   004B                     100 nivel_2::
                            101  
   004B CD 00 00      [17]  102  call posicion_entities
   004E CD 00 00      [17]  103   call patrol_nivel_single2
   0051 CD 00 00      [17]  104  call next_map
   0054 CD 00 00      [17]  105  call cambiar_colisiones
                            106 
   0057 3E 01         [ 7]  107  ld a, #dificultad1
   0059 CD 00 00      [17]  108  call cambiar_velocidad_ia
                            109 
   005C 3E 01         [ 7]  110  ld a, #dificultad1
   005E CD 00 00      [17]  111  call cambiar_dificultad_ia
                            112 
   0061 3E 01         [ 7]  113  ld a, #dificultad1 
   0063 CD 00 00      [17]  114  call velocidad_balas
                            115 
   0066 21 73 00      [10]  116 ld hl, #nivel_3		;;preparo para ir al siguiente nivel
   0069 22 1B 00      [16]  117 ld(_puntero_nivel),hl
                            118 
   006C 21 4B 00      [10]  119 ld hl, #nivel_2		
   006F 22 1E 00      [16]  120 ld(_puntero_nivel_reinicio),hl
   0072 C9            [10]  121 ret
                            122 
                            123 
                            124 ;;;;;;;;;;;;;;;;;;;;;;;;;
ASxxxx Assembler V02.00 + NoICE + SDCC mods  (Zilog Z80 / Hitachi HD64180), page 14.
Hexadecimal [16-Bits]



                            125 ;;NIVEL 3 single player;;
                            126 ;;;;;;;;;;;;;;;;;;;;;;;;;
   0073                     127 nivel_3::
                            128 
   0073 CD 00 00      [17]  129   call posicion_entities                
   0076 CD 00 00      [17]  130  call patrol_nivel_single3
                            131 
   0079 CD 00 00      [17]  132  call cambiar_colisiones
                            133 
   007C CD 00 00      [17]  134  call next_map
                            135 
                            136 
   007F 3E 01         [ 7]  137   ld a, #dificultad1
   0081 CD 00 00      [17]  138  call cambiar_velocidad_ia
                            139 
   0084 3E 02         [ 7]  140  ld a, #dificultad2
   0086 CD 00 00      [17]  141  call cambiar_dificultad_ia
                            142 
   0089 3E 01         [ 7]  143  ld a, #dificultad1 
   008B CD 00 00      [17]  144  call velocidad_balas
                            145 
   008E CD 00 00      [17]  146  call next_song
                            147 
                            148 
   0091 21 9E 00      [10]  149 ld hl, #nivel_4		;;preparo para ir al siguiente nivel
   0094 22 1B 00      [16]  150 ld(_puntero_nivel),hl
                            151 
                            152 
   0097 21 73 00      [10]  153 ld hl, #nivel_3		
   009A 22 1E 00      [16]  154 ld(_puntero_nivel_reinicio),hl
   009D C9            [10]  155 ret
                            156 
                            157 
                            158 ;;;;;;;;;;;;;;;;;;;;;;;;;
                            159 ;;NIVEL 4 single player;;
                            160 ;;;;;;;;;;;;;;;;;;;;;;;;;
   009E                     161 nivel_4::
                            162 
   009E CD 00 00      [17]  163   call posicion_entities               
   00A1 CD 00 00      [17]  164   call patrol_nivel_single4
                            165 
   00A4 CD 00 00      [17]  166  call cambiar_colisiones
                            167 
   00A7 CD 00 00      [17]  168  call next_map
                            169 
                            170 
                            171 
   00AA 3E 01         [ 7]  172   ld a, #dificultad1
   00AC CD 00 00      [17]  173  call cambiar_velocidad_ia
                            174 
   00AF 3E 03         [ 7]  175  ld a, #dificultad3
   00B1 CD 00 00      [17]  176  call cambiar_dificultad_ia
                            177 
   00B4 3E 01         [ 7]  178  ld a, #dificultad1 
   00B6 CD 00 00      [17]  179  call velocidad_balas
ASxxxx Assembler V02.00 + NoICE + SDCC mods  (Zilog Z80 / Hitachi HD64180), page 15.
Hexadecimal [16-Bits]



                            180 
   00B9 21 C6 00      [10]  181 ld hl, #nivel_5		;;preparo para ir al siguiente nivel
   00BC 22 1B 00      [16]  182 ld(_puntero_nivel),hl
                            183 
                            184 
   00BF 21 9E 00      [10]  185 ld hl, #nivel_4		
   00C2 22 1E 00      [16]  186 ld(_puntero_nivel_reinicio),hl
   00C5 C9            [10]  187 ret
                            188 
                            189 
                            190 ;;;;;;;;;;;;;;;;;;;;;;;;;
                            191 ;;NIVEL 5 single player;;
                            192 ;;;;;;;;;;;;;;;;;;;;;;;;;
   00C6                     193 nivel_5::
                            194 
                            195 
   00C6 CD 00 00      [17]  196  call posicion_entities               
   00C9 CD 00 00      [17]  197  call patrol_nivel_single5
                            198 
   00CC CD 00 00      [17]  199  call cambiar_colisiones
                            200 
   00CF CD 00 00      [17]  201  call next_map
                            202 
   00D2 3E 02         [ 7]  203  ld a, #dificultad2
   00D4 CD 00 00      [17]  204  call cambiar_velocidad_ia
                            205 
   00D7 3E 03         [ 7]  206  ld a, #dificultad3
   00D9 CD 00 00      [17]  207  call cambiar_dificultad_ia
                            208 
   00DC 3E 02         [ 7]  209  ld a, #dificultad2 
   00DE CD 00 00      [17]  210  call velocidad_balas
                            211 
   00E1 CD 00 00      [17]  212  call next_song
                            213 
   00E4 21 F1 00      [10]  214 ld hl, #nivel_6		;;preparo para ir al siguiente nivel
   00E7 22 1B 00      [16]  215 ld(_puntero_nivel),hl
                            216 
                            217 
   00EA 21 C6 00      [10]  218 ld hl, #nivel_5		
   00ED 22 1E 00      [16]  219 ld(_puntero_nivel_reinicio),hl
                            220 
   00F0 C9            [10]  221 ret
                            222 
                            223 
                            224 
                            225 ;;;;;;;;;;;;;;;;;;;;;;;;;
                            226 ;;NIVEL 6 single player;;
                            227 ;;;;;;;;;;;;;;;;;;;;;;;;;
   00F1                     228 nivel_6::
                            229 
                            230  
                            231 
   00F1 CD 00 00      [17]  232  call posicion_entities               
   00F4 CD 00 00      [17]  233  call patrol_nivel_single6
                            234 
ASxxxx Assembler V02.00 + NoICE + SDCC mods  (Zilog Z80 / Hitachi HD64180), page 16.
Hexadecimal [16-Bits]



   00F7 CD 00 00      [17]  235  call cambiar_colisiones
                            236 
   00FA CD 00 00      [17]  237  call next_map
                            238 
   00FD 3E 02         [ 7]  239  ld a, #dificultad2
   00FF CD 00 00      [17]  240  call cambiar_velocidad_ia
                            241 
   0102 3E 04         [ 7]  242  ld a, #dificultad4
   0104 CD 00 00      [17]  243  call cambiar_dificultad_ia
                            244 
   0107 3E 02         [ 7]  245  ld a, #dificultad2 
   0109 CD 00 00      [17]  246  call velocidad_balas
                            247 
                            248 
   010C 21 F1 00      [10]  249 ld hl, #nivel_6		;;preparo para ir al siguiente nivel
   010F 22 1B 00      [16]  250 ld(_puntero_nivel),hl
                            251 
   0112 3E 02         [ 7]  252 ld a, #partida_terminada ;;pongo el estado a siguiente nivel para que salte a los siguientes y no inicialice
   0114 32 00 00      [13]  253 ld (estado_nivel_single),a
                            254 
                            255 
   0117 21 F1 00      [10]  256 ld hl, #nivel_6		
   011A 22 1E 00      [16]  257 ld(_puntero_nivel_reinicio),hl
                            258 
                            259 
   011D C9            [10]  260 ret
                            261 
                            262 
                            263 
                            264 
                            265 
                            266 
                            267 
                            268 
                            269 
                            270 
                            271 ;;;;;;;;;;;;;;;;;;;;;;;;;;;;;;;;;;;;;,
                            272 ;;;;;;;;;;;;;;;;;;;;;;;;;;;;;;;;;;;;;;
                            273 ;;GENERADOR NIVELES MULTIJUGADOR;;;;;;
                            274 ;;;;;;;;;;;;;;;;;;;;;;;;;;;;;;;;;;;;;;
                            275 ;;;;;;;;;;;;;;;;;;;;;;;;;;;;;;;;;;;;;,
                            276 
                            277 
   011E                     278 crear_nivel_multi::
                            279 
   011E 3A 01 00      [13]  280 ld a, (estado_nivel_multi)
   0121 FE 00         [ 7]  281 cp #sin_nivel
   0123 20 0B         [12]  282 jr nz,_NO_inicializar_nivel_multi1 ;; Comprobamos si el nivel actual es 0 o otro para inicializar o ir al siguiente
   0125                     283 _inicializar_nivel_multi1:	;; inicializo el nivel y lo pongo en el nivel_1
   0125 21 33 01      [10]  284 ld hl, #nivel_multi_1
   0128 22 31 01      [16]  285 ld(_puntero_nivel_multi),hl
                            286 
   012B 3E 01         [ 7]  287 ld a, #siguiente_nivel ;;pongo el estado a siguiente nivel para que salte a los siguientes y no inicialice
   012D 32 01 00      [13]  288 ld (estado_nivel_multi),a
                            289 
ASxxxx Assembler V02.00 + NoICE + SDCC mods  (Zilog Z80 / Hitachi HD64180), page 17.
Hexadecimal [16-Bits]



   0130                     290 _NO_inicializar_nivel_multi1: ;; salto al nivel que toca
                            291 
                     0131   292  _puntero_nivel_multi=.+1
   0130 C3 00 00      [10]  293  jp 0000
                            294  
                            295 
                            296 
                            297 ;;;;;;;;;;;;;;;;;;;;;;;;;
                            298 ;;NIVEL 1 multiplayer  ;;
                            299 ;;;;;;;;;;;;;;;;;;;;;;;;;
   0133                     300 nivel_multi_1::
                            301 
                            302  
   0133 CD 00 00      [17]  303  call reset_lvl
                            304 
   0136 CD 00 00      [17]  305  call patrol_nivel_multi1
                            306  
   0139 CD 00 00      [17]  307  call posicion_entities
                            308 
   013C CD 00 00      [17]  309  call cambiar_colisiones
                            310 
                            311 
   013F CD 00 00      [17]  312  call next_map
                            313 
                            314 
   0142 CD 00 00      [17]  315  call next_song
                            316 
                            317 
                            318 
   0145 21 4C 01      [10]  319 ld hl, #nivel_multi_2		;;preparo para ir al siguiente nivel
   0148 22 31 01      [16]  320 ld (_puntero_nivel_multi),hl
                            321 
   014B C9            [10]  322 ret
                            323 
                            324 
                            325 ;;;;;;;;;;;;;;;;;;;;;;;;;
                            326 ;;NIVEL 2 multiplayer  ;;
                            327 ;;;;;;;;;;;;;;;;;;;;;;;;;
   014C                     328 nivel_multi_2::
                            329 
   014C CD 00 00      [17]  330  call posicion_entities
                            331 
   014F CD 00 00      [17]  332  call patrol_nivel_multi2
                            333 
   0152 CD 00 00      [17]  334  call cambiar_colisiones
                            335 
   0155 CD 00 00      [17]  336  call next_map
                            337 
                            338 
                            339 
                            340 
                            341 
   0158 21 5F 01      [10]  342 ld hl, #nivel_multi_3		;;preparo para ir al siguiente nivel
   015B 22 31 01      [16]  343 ld(_puntero_nivel_multi),hl
   015E C9            [10]  344 ret
ASxxxx Assembler V02.00 + NoICE + SDCC mods  (Zilog Z80 / Hitachi HD64180), page 18.
Hexadecimal [16-Bits]



                            345 
                            346 
                            347 ;;;;;;;;;;;;;;;;;;;;;;;;;
                            348 ;;NIVEL 3 multiplayer  ;;
                            349 ;;;;;;;;;;;;;;;;;;;;;;;;;
   015F                     350 nivel_multi_3::
                            351 
   015F CD 00 00      [17]  352  call posicion_entities
                            353 
   0162 CD 00 00      [17]  354  call patrol_nivel_multi3
                            355 
   0165 CD 00 00      [17]  356  call cambiar_colisiones
                            357 
   0168 CD 00 00      [17]  358  call next_map
   016B CD 00 00      [17]  359  call next_song
                            360 
                            361 
   016E 21 75 01      [10]  362 ld hl, #nivel_multi_4		;;preparo para ir al siguiente nivel
   0171 22 31 01      [16]  363 ld(_puntero_nivel_multi),hl
   0174 C9            [10]  364 ret
                            365 
                            366 
                            367 ;;;;;;;;;;;;;;;;;;;;;;;;;
                            368 ;;NIVEL 4 multiplayer  ;;
                            369 ;;;;;;;;;;;;;;;;;;;;;;;;;
   0175                     370 nivel_multi_4::
                            371 
   0175 CD 00 00      [17]  372  call posicion_entities
                            373 
   0178 CD 00 00      [17]  374  call patrol_nivel_multi4
                            375 
   017B CD 00 00      [17]  376  call cambiar_colisiones
                            377 
   017E CD 00 00      [17]  378  call next_map
                            379 
                            380 
                            381 
   0181 21 88 01      [10]  382 ld hl, #nivel_multi_5		;;preparo para ir al siguiente nivel
   0184 22 31 01      [16]  383 ld(_puntero_nivel_multi),hl
   0187 C9            [10]  384 ret
                            385 
                            386 
                            387 ;;;;;;;;;;;;;;;;;;;;;;;;;
                            388 ;;NIVEL 5 multiplayer  ;;
                            389 ;;;;;;;;;;;;;;;;;;;;;;;;;
   0188                     390 nivel_multi_5::
                            391 
   0188 CD 00 00      [17]  392  call posicion_entities
                            393 
   018B CD 00 00      [17]  394  call patrol_nivel_multi5
                            395 
   018E CD 00 00      [17]  396  call cambiar_colisiones
                            397 
   0191 CD 00 00      [17]  398  call next_map
   0194 CD 00 00      [17]  399  call next_song
ASxxxx Assembler V02.00 + NoICE + SDCC mods  (Zilog Z80 / Hitachi HD64180), page 19.
Hexadecimal [16-Bits]



                            400 
   0197 21 9F 01      [10]  401 ld hl, #nivel_multi_6		;;preparo para ir al siguiente nivel
   019A 22 31 01      [16]  402 ld(_puntero_nivel_multi),hl
   019D C9            [10]  403 ret
                            404 
   019E C9            [10]  405 ret
                            406 
                            407 
                            408 ;;;;;;;;;;;;;;;;;;;;;;;;;
                            409 ;;NIVEL 6 multiplayer  ;;
                            410 ;;;;;;;;;;;;;;;;;;;;;;;;;
   019F                     411 nivel_multi_6:
                            412 
   019F CD 00 00      [17]  413  call patrol_nivel_multi6
                            414 
   01A2 CD 00 00      [17]  415  call cambiar_colisiones
                            416 
   01A5 CD 00 00      [17]  417  call next_map
                            418 
                            419 
   01A8 21 33 01      [10]  420 ld hl, #nivel_multi_1		;;preparo para ir al siguiente nivel
   01AB 22 31 01      [16]  421 ld (_puntero_nivel_multi),hl
   01AE C9            [10]  422 ret
                            423 
                            424 
                            425 
                            426 
   01AF                     427 sistema_reiniciar_niveles::
                            428 
   01AF 3E 00         [ 7]  429 ld a,#0
   01B1 32 00 00      [13]  430 ld (estado_nivel_single), a
   01B4 32 01 00      [13]  431 ld (estado_nivel_multi), a
                            432 
   01B7 CD 00 00      [17]  433 call reiniciar_gameover
   01BA CD 00 00      [17]  434 call reiniciar_posiciones
   01BD CD 00 00      [17]  435 call reset_lvl
   01C0 CD 00 00      [17]  436 call reiniciar_colisiones
   01C3 CD 00 00      [17]  437 call kill_bullet_all
                            438 
   01C6 3E 01         [ 7]  439 ld a, #dificultad1
   01C8 CD 00 00      [17]  440  call cambiar_velocidad_ia
                            441 
   01CB 3E 01         [ 7]  442  ld a, #dificultad1
   01CD CD 00 00      [17]  443  call cambiar_dificultad_ia
                            444 
   01D0 3E 01         [ 7]  445  ld a, #dificultad1 
   01D2 CD 00 00      [17]  446  call velocidad_balas
                            447 	
   01D5 C9            [10]  448 	ret
